; Function Attrs: mustprogress uwtable
define internal void @_ZN12_GLOBAL__N_124rel_act_case_split_queue5resetEv(ptr noundef nonnull align 8 dereferenceable(80) %this) unnamed_addr #3 align 2 {
entry:
  %m_queue = getelementptr inbounds i8, ptr %this, i64 32
  %0 = load ptr, ptr %m_queue, align 8
  %tobool.not.i = icmp eq ptr %0, null
  br i1 %tobool.not.i, label %_ZN6vectorIP4exprLb0EjE5resetEv.exit, label %if.then.i

if.then.i:                                        ; preds = %entry
  %arrayidx.i = getelementptr inbounds i8, ptr %0, i64 -4
  store i32 0, ptr %arrayidx.i, align 4
  br label %_ZN6vectorIP4exprLb0EjE5resetEv.exit

_ZN6vectorIP4exprLb0EjE5resetEv.exit:             ; preds = %entry, %if.then.i
  %m_head = getelementptr inbounds i8, ptr %this, i64 40
  store i32 0, ptr %m_head, align 8
  %1 = getelementptr inbounds i8, ptr %this, i64 56
  %this.val.i = load ptr, ptr %1, align 8
  %cmp.i.i.i = icmp eq ptr %this.val.i, null
  br i1 %cmp.i.i.i, label %if.end.i, label %_ZNK4heapIN12_GLOBAL__N_115bool_var_act_ltEE5emptyEv.exit.i

_ZNK4heapIN12_GLOBAL__N_115bool_var_act_ltEE5emptyEv.exit.i: ; preds = %_ZN6vectorIP4exprLb0EjE5resetEv.exit
  %arrayidx.i.i.i = getelementptr inbounds i8, ptr %this.val.i, i64 -4
  %2 = load i32, ptr %arrayidx.i.i.i, align 4
  %3 = icmp eq i32 %2, 1
  br i1 %3, label %_ZN4heapIN12_GLOBAL__N_115bool_var_act_ltEE5resetEv.exit, label %if.end.i

if.end.i:                                         ; preds = %_ZNK4heapIN12_GLOBAL__N_115bool_var_act_ltEE5emptyEv.exit.i, %_ZN6vectorIP4exprLb0EjE5resetEv.exit
  %m_value2indices.i = getelementptr inbounds i8, ptr %this, i64 64
  %4 = load ptr, ptr %m_value2indices.i, align 8
  %cmp.i.i = icmp eq ptr %4, null
  br i1 %cmp.i.i, label %_ZNK6vectorIiLb0EjE4sizeEv.exit.i, label %if.end.i.i

if.end.i.i:                                       ; preds = %if.end.i
  %arrayidx.i.i = getelementptr inbounds i8, ptr %4, i64 -4
  %5 = load i32, ptr %arrayidx.i.i, align 4
  %6 = zext i32 %5 to i64
  %7 = shl nuw nsw i64 %6, 2
  br label %_ZNK6vectorIiLb0EjE4sizeEv.exit.i

_ZNK6vectorIiLb0EjE4sizeEv.exit.i:                ; preds = %if.end.i.i, %if.end.i
  %retval.0.i.i = phi i64 [ %7, %if.end.i.i ], [ 0, %if.end.i ]
  tail call void @llvm.memset.p0.i64(ptr align 4 %4, i8 0, i64 %retval.0.i.i, i1 false)
  %8 = load ptr, ptr %1, align 8
  %tobool.not.i.i = icmp eq ptr %8, null
  br i1 %tobool.not.i.i, label %if.then.i6.i, label %_ZN6vectorIiLb0EjE5resetEv.exit.i

_ZN6vectorIiLb0EjE5resetEv.exit.i:                ; preds = %_ZNK6vectorIiLb0EjE4sizeEv.exit.i
  %arrayidx.i1.i = getelementptr inbounds i8, ptr %8, i64 -4
  store i32 0, ptr %arrayidx.i1.i, align 4
  %.pr.i = load ptr, ptr %1, align 8
  %cmp.i3.i = icmp eq ptr %.pr.i, null
  br i1 %cmp.i3.i, label %if.then.i6.i, label %lor.lhs.false.i.i

lor.lhs.false.i.i:                                ; preds = %_ZN6vectorIiLb0EjE5resetEv.exit.i
  %arrayidx.i4.i = getelementptr inbounds i8, ptr %.pr.i, i64 -4
  %9 = load i32, ptr %arrayidx.i4.i, align 4
  %arrayidx4.i.i = getelementptr inbounds i8, ptr %.pr.i, i64 -8
  %10 = load i32, ptr %arrayidx4.i.i, align 4
  %cmp5.i.i = icmp eq i32 %9, %10
  br i1 %cmp5.i.i, label %if.then.i6.i, label %_ZN6vectorIiLb0EjE9push_backEOi.exit.i

if.then.i6.i:                                     ; preds = %lor.lhs.false.i.i, %_ZN6vectorIiLb0EjE5resetEv.exit.i, %_ZNK6vectorIiLb0EjE4sizeEv.exit.i
  tail call void @_ZN6vectorIiLb0EjE13expand_vectorEv(ptr noundef nonnull align 8 dereferenceable(8) %1)
  %.pre.i.i = load ptr, ptr %1, align 8
  %arrayidx8.phi.trans.insert.i.i = getelementptr inbounds i8, ptr %.pre.i.i, i64 -4
  %.pre1.i.i = load i32, ptr %arrayidx8.phi.trans.insert.i.i, align 4
  br label %_ZN6vectorIiLb0EjE9push_backEOi.exit.i

_ZN6vectorIiLb0EjE9push_backEOi.exit.i:           ; preds = %if.then.i6.i, %lor.lhs.false.i.i
  %11 = phi i32 [ %.pre1.i.i, %if.then.i6.i ], [ %9, %lor.lhs.false.i.i ]
  %12 = phi ptr [ %.pre.i.i, %if.then.i6.i ], [ %.pr.i, %lor.lhs.false.i.i ]
  %idx.ext.i.i = zext i32 %11 to i64
  %add.ptr.i.i = getelementptr inbounds i32, ptr %12, i64 %idx.ext.i.i
  store i32 -1, ptr %add.ptr.i.i, align 4
  %13 = load ptr, ptr %1, align 8
  %arrayidx10.i.i = getelementptr inbounds i8, ptr %13, i64 -4
  %14 = load i32, ptr %arrayidx10.i.i, align 4
  %inc.i.i = add i32 %14, 1
  store i32 %inc.i.i, ptr %arrayidx10.i.i, align 4
  br label %_ZN4heapIN12_GLOBAL__N_115bool_var_act_ltEE5resetEv.exit

_ZN4heapIN12_GLOBAL__N_115bool_var_act_ltEE5resetEv.exit: ; preds = %_ZNK4heapIN12_GLOBAL__N_115bool_var_act_ltEE5emptyEv.exit.i, %_ZN6vectorIiLb0EjE9push_backEOi.exit.i
  %m_scopes = getelementptr inbounds i8, ptr %this, i64 72
  %m_scopes.val = load ptr, ptr %m_scopes, align 8
  %tobool.not.i1 = icmp eq ptr %m_scopes.val, null
  br i1 %tobool.not.i1, label %_ZN6vectorIN12_GLOBAL__N_124rel_act_case_split_queue5scopeELb0EjE5resetEv.exit, label %if.then.i2

if.then.i2:                                       ; preds = %_ZN4heapIN12_GLOBAL__N_115bool_var_act_ltEE5resetEv.exit
  %arrayidx.i3 = getelementptr inbounds i8, ptr %m_scopes.val, i64 -4
  store i32 0, ptr %arrayidx.i3, align 4
  br label %_ZN6vectorIN12_GLOBAL__N_124rel_act_case_split_queue5scopeELb0EjE5resetEv.exit

_ZN6vectorIN12_GLOBAL__N_124rel_act_case_split_queue5scopeELb0EjE5resetEv.exit: ; preds = %_ZN4heapIN12_GLOBAL__N_115bool_var_act_ltEE5resetEv.exit, %if.then.i2
  ret void
}